target datalayout = "e-m:e-p270:32:32-p271:32:32-p272:64:64-i64:64-i128:128-f80:128-n8:16:32:64-S128"
target triple = "x86_64-pc-linux-gnu"

; Function Attrs: nounwind sspstrong uwtable
define internal i32 @pm_cesu_8_codepoint(ptr noundef %0, i64 noundef %1, ptr noundef %2) #0 {
  %4 = alloca i32, align 4
  %5 = alloca ptr, align 8
  %6 = alloca i64, align 8
  %7 = alloca ptr, align 8
  store ptr %0, ptr %5, align 8, !tbaa !7
  store i64 %1, ptr %6, align 8, !tbaa !12
  store ptr %2, ptr %7, align 8, !tbaa !19
  %8 = load ptr, ptr %5, align 8, !tbaa !7
  %9 = getelementptr i8, ptr %8, i64 0
  %10 = load i8, ptr %9, align 1, !tbaa !16
  %11 = zext i8 %10 to i32
  %12 = icmp slt i32 %11, 128
  br i1 %12, label %13, label %19

13:                                               ; preds = %3
  %14 = load ptr, ptr %7, align 8, !tbaa !19
  store i64 1, ptr %14, align 8, !tbaa !12
  %15 = load ptr, ptr %5, align 8, !tbaa !7
  %16 = getelementptr i8, ptr %15, i64 0
  %17 = load i8, ptr %16, align 1, !tbaa !16
  %18 = zext i8 %17 to i32
  store i32 %18, ptr %4, align 4
  br label %269

19:                                               ; preds = %3
  %20 = load i64, ptr %6, align 8, !tbaa !12
  %21 = icmp sgt i64 %20, 1
  br i1 %21, label %22, label %60

22:                                               ; preds = %19
  %23 = load ptr, ptr %5, align 8, !tbaa !7
  %24 = getelementptr i8, ptr %23, i64 0
  %25 = load i8, ptr %24, align 1, !tbaa !16
  %26 = zext i8 %25 to i32
  %27 = icmp sge i32 %26, 194
  br i1 %27, label %28, label %60

28:                                               ; preds = %22
  %29 = load ptr, ptr %5, align 8, !tbaa !7
  %30 = getelementptr i8, ptr %29, i64 0
  %31 = load i8, ptr %30, align 1, !tbaa !16
  %32 = zext i8 %31 to i32
  %33 = icmp sle i32 %32, 223
  br i1 %33, label %34, label %60

34:                                               ; preds = %28
  %35 = load ptr, ptr %5, align 8, !tbaa !7
  %36 = getelementptr i8, ptr %35, i64 1
  %37 = load i8, ptr %36, align 1, !tbaa !16
  %38 = zext i8 %37 to i32
  %39 = icmp sge i32 %38, 128
  br i1 %39, label %40, label %60

40:                                               ; preds = %34
  %41 = load ptr, ptr %5, align 8, !tbaa !7
  %42 = getelementptr i8, ptr %41, i64 1
  %43 = load i8, ptr %42, align 1, !tbaa !16
  %44 = zext i8 %43 to i32
  %45 = icmp sle i32 %44, 191
  br i1 %45, label %46, label %60

46:                                               ; preds = %40
  %47 = load ptr, ptr %7, align 8, !tbaa !19
  store i64 2, ptr %47, align 8, !tbaa !12
  %48 = load ptr, ptr %5, align 8, !tbaa !7
  %49 = getelementptr i8, ptr %48, i64 0
  %50 = load i8, ptr %49, align 1, !tbaa !16
  %51 = zext i8 %50 to i32
  %52 = and i32 %51, 31
  %53 = shl i32 %52, 6
  %54 = load ptr, ptr %5, align 8, !tbaa !7
  %55 = getelementptr i8, ptr %54, i64 1
  %56 = load i8, ptr %55, align 1, !tbaa !16
  %57 = zext i8 %56 to i32
  %58 = and i32 %57, 63
  %59 = or i32 %53, %58
  store i32 %59, ptr %4, align 4
  br label %269

60:                                               ; preds = %40, %34, %28, %22, %19
  %61 = load i64, ptr %6, align 8, !tbaa !12
  %62 = icmp sgt i64 %61, 5
  br i1 %62, label %63, label %152

63:                                               ; preds = %60
  %64 = load ptr, ptr %5, align 8, !tbaa !7
  %65 = getelementptr i8, ptr %64, i64 0
  %66 = load i8, ptr %65, align 1, !tbaa !16
  %67 = zext i8 %66 to i32
  %68 = icmp eq i32 %67, 237
  br i1 %68, label %69, label %152

69:                                               ; preds = %63
  %70 = load ptr, ptr %5, align 8, !tbaa !7
  %71 = getelementptr i8, ptr %70, i64 1
  %72 = load i8, ptr %71, align 1, !tbaa !16
  %73 = zext i8 %72 to i32
  %74 = icmp sge i32 %73, 160
  br i1 %74, label %75, label %152

75:                                               ; preds = %69
  %76 = load ptr, ptr %5, align 8, !tbaa !7
  %77 = getelementptr i8, ptr %76, i64 1
  %78 = load i8, ptr %77, align 1, !tbaa !16
  %79 = zext i8 %78 to i32
  %80 = icmp sle i32 %79, 175
  br i1 %80, label %81, label %152

81:                                               ; preds = %75
  %82 = load ptr, ptr %5, align 8, !tbaa !7
  %83 = getelementptr i8, ptr %82, i64 2
  %84 = load i8, ptr %83, align 1, !tbaa !16
  %85 = zext i8 %84 to i32
  %86 = icmp sge i32 %85, 128
  br i1 %86, label %87, label %152

87:                                               ; preds = %81
  %88 = load ptr, ptr %5, align 8, !tbaa !7
  %89 = getelementptr i8, ptr %88, i64 2
  %90 = load i8, ptr %89, align 1, !tbaa !16
  %91 = zext i8 %90 to i32
  %92 = icmp sle i32 %91, 191
  br i1 %92, label %93, label %152

93:                                               ; preds = %87
  %94 = load ptr, ptr %5, align 8, !tbaa !7
  %95 = getelementptr i8, ptr %94, i64 3
  %96 = load i8, ptr %95, align 1, !tbaa !16
  %97 = zext i8 %96 to i32
  %98 = icmp eq i32 %97, 237
  br i1 %98, label %99, label %152

99:                                               ; preds = %93
  %100 = load ptr, ptr %5, align 8, !tbaa !7
  %101 = getelementptr i8, ptr %100, i64 4
  %102 = load i8, ptr %101, align 1, !tbaa !16
  %103 = zext i8 %102 to i32
  %104 = icmp sge i32 %103, 176
  br i1 %104, label %105, label %152

105:                                              ; preds = %99
  %106 = load ptr, ptr %5, align 8, !tbaa !7
  %107 = getelementptr i8, ptr %106, i64 4
  %108 = load i8, ptr %107, align 1, !tbaa !16
  %109 = zext i8 %108 to i32
  %110 = icmp sle i32 %109, 191
  br i1 %110, label %111, label %152

111:                                              ; preds = %105
  %112 = load ptr, ptr %5, align 8, !tbaa !7
  %113 = getelementptr i8, ptr %112, i64 5
  %114 = load i8, ptr %113, align 1, !tbaa !16
  %115 = zext i8 %114 to i32
  %116 = icmp sge i32 %115, 128
  br i1 %116, label %117, label %152

117:                                              ; preds = %111
  %118 = load ptr, ptr %5, align 8, !tbaa !7
  %119 = getelementptr i8, ptr %118, i64 5
  %120 = load i8, ptr %119, align 1, !tbaa !16
  %121 = zext i8 %120 to i32
  %122 = icmp sle i32 %121, 191
  br i1 %122, label %123, label %152

123:                                              ; preds = %117
  %124 = load ptr, ptr %7, align 8, !tbaa !19
  store i64 6, ptr %124, align 8, !tbaa !12
  %125 = load ptr, ptr %5, align 8, !tbaa !7
  %126 = getelementptr i8, ptr %125, i64 1
  %127 = load i8, ptr %126, align 1, !tbaa !16
  %128 = zext i8 %127 to i32
  %129 = and i32 %128, 15
  %130 = shl i32 %129, 16
  %131 = load ptr, ptr %5, align 8, !tbaa !7
  %132 = getelementptr i8, ptr %131, i64 2
  %133 = load i8, ptr %132, align 1, !tbaa !16
  %134 = zext i8 %133 to i32
  %135 = and i32 %134, 63
  %136 = shl i32 %135, 10
  %137 = or i32 %130, %136
  %138 = load ptr, ptr %5, align 8, !tbaa !7
  %139 = getelementptr i8, ptr %138, i64 4
  %140 = load i8, ptr %139, align 1, !tbaa !16
  %141 = zext i8 %140 to i32
  %142 = and i32 %141, 15
  %143 = shl i32 %142, 6
  %144 = or i32 %137, %143
  %145 = load ptr, ptr %5, align 8, !tbaa !7
  %146 = getelementptr i8, ptr %145, i64 5
  %147 = load i8, ptr %146, align 1, !tbaa !16
  %148 = zext i8 %147 to i32
  %149 = and i32 %148, 63
  %150 = or i32 %144, %149
  %151 = add i32 65536, %150
  store i32 %151, ptr %4, align 4
  br label %269

152:                                              ; preds = %117, %111, %105, %99, %93, %87, %81, %75, %69, %63, %60
  %153 = load i64, ptr %6, align 8, !tbaa !12
  %154 = icmp sgt i64 %153, 2
  br i1 %154, label %155, label %195

155:                                              ; preds = %152
  %156 = load ptr, ptr %5, align 8, !tbaa !7
  %157 = getelementptr i8, ptr %156, i64 0
  %158 = load i8, ptr %157, align 1, !tbaa !16
  %159 = zext i8 %158 to i32
  %160 = icmp eq i32 %159, 237
  br i1 %160, label %161, label %195

161:                                              ; preds = %155
  %162 = load ptr, ptr %5, align 8, !tbaa !7
  %163 = getelementptr i8, ptr %162, i64 1
  %164 = load i8, ptr %163, align 1, !tbaa !16
  %165 = zext i8 %164 to i32
  %166 = icmp sge i32 %165, 160
  br i1 %166, label %167, label %195

167:                                              ; preds = %161
  %168 = load ptr, ptr %5, align 8, !tbaa !7
  %169 = getelementptr i8, ptr %168, i64 1
  %170 = load i8, ptr %169, align 1, !tbaa !16
  %171 = zext i8 %170 to i32
  %172 = icmp sle i32 %171, 191
  br i1 %172, label %173, label %195

173:                                              ; preds = %167
  %174 = load ptr, ptr %7, align 8, !tbaa !19
  store i64 3, ptr %174, align 8, !tbaa !12
  %175 = load ptr, ptr %5, align 8, !tbaa !7
  %176 = getelementptr i8, ptr %175, i64 0
  %177 = load i8, ptr %176, align 1, !tbaa !16
  %178 = zext i8 %177 to i32
  %179 = and i32 %178, 3
  %180 = shl i32 %179, 16
  %181 = load ptr, ptr %5, align 8, !tbaa !7
  %182 = getelementptr i8, ptr %181, i64 1
  %183 = load i8, ptr %182, align 1, !tbaa !16
  %184 = zext i8 %183 to i32
  %185 = and i32 %184, 63
  %186 = shl i32 %185, 10
  %187 = or i32 %180, %186
  %188 = load ptr, ptr %5, align 8, !tbaa !7
  %189 = getelementptr i8, ptr %188, i64 2
  %190 = load i8, ptr %189, align 1, !tbaa !16
  %191 = zext i8 %190 to i32
  %192 = and i32 %191, 63
  %193 = or i32 %187, %192
  %194 = add i32 65536, %193
  store i32 %194, ptr %4, align 4
  br label %269

195:                                              ; preds = %167, %161, %155, %152
  %196 = load i64, ptr %6, align 8, !tbaa !12
  %197 = icmp sgt i64 %196, 2
  br i1 %197, label %198, label %267

198:                                              ; preds = %195
  %199 = load ptr, ptr %5, align 8, !tbaa !7
  %200 = getelementptr i8, ptr %199, i64 0
  %201 = load i8, ptr %200, align 1, !tbaa !16
  %202 = zext i8 %201 to i32
  %203 = icmp eq i32 %202, 224
  br i1 %203, label %204, label %210

204:                                              ; preds = %198
  %205 = load ptr, ptr %5, align 8, !tbaa !7
  %206 = getelementptr i8, ptr %205, i64 1
  %207 = load i8, ptr %206, align 1, !tbaa !16
  %208 = zext i8 %207 to i32
  %209 = icmp sge i32 %208, 160
  br i1 %209, label %228, label %210

210:                                              ; preds = %204, %198
  %211 = load ptr, ptr %5, align 8, !tbaa !7
  %212 = getelementptr i8, ptr %211, i64 0
  %213 = load i8, ptr %212, align 1, !tbaa !16
  %214 = zext i8 %213 to i32
  %215 = icmp sge i32 %214, 225
  br i1 %215, label %216, label %267

216:                                              ; preds = %210
  %217 = load ptr, ptr %5, align 8, !tbaa !7
  %218 = getelementptr i8, ptr %217, i64 0
  %219 = load i8, ptr %218, align 1, !tbaa !16
  %220 = zext i8 %219 to i32
  %221 = icmp sle i32 %220, 239
  br i1 %221, label %222, label %267

222:                                              ; preds = %216
  %223 = load ptr, ptr %5, align 8, !tbaa !7
  %224 = getelementptr i8, ptr %223, i64 1
  %225 = load i8, ptr %224, align 1, !tbaa !16
  %226 = zext i8 %225 to i32
  %227 = icmp sge i32 %226, 128
  br i1 %227, label %228, label %267

228:                                              ; preds = %222, %204
  %229 = load ptr, ptr %5, align 8, !tbaa !7
  %230 = getelementptr i8, ptr %229, i64 1
  %231 = load i8, ptr %230, align 1, !tbaa !16
  %232 = zext i8 %231 to i32
  %233 = icmp sle i32 %232, 191
  br i1 %233, label %234, label %267

234:                                              ; preds = %228
  %235 = load ptr, ptr %5, align 8, !tbaa !7
  %236 = getelementptr i8, ptr %235, i64 2
  %237 = load i8, ptr %236, align 1, !tbaa !16
  %238 = zext i8 %237 to i32
  %239 = icmp sge i32 %238, 128
  br i1 %239, label %240, label %267

240:                                              ; preds = %234
  %241 = load ptr, ptr %5, align 8, !tbaa !7
  %242 = getelementptr i8, ptr %241, i64 2
  %243 = load i8, ptr %242, align 1, !tbaa !16
  %244 = zext i8 %243 to i32
  %245 = icmp sle i32 %244, 191
  br i1 %245, label %246, label %267

246:                                              ; preds = %240
  %247 = load ptr, ptr %7, align 8, !tbaa !19
  store i64 3, ptr %247, align 8, !tbaa !12
  %248 = load ptr, ptr %5, align 8, !tbaa !7
  %249 = getelementptr i8, ptr %248, i64 0
  %250 = load i8, ptr %249, align 1, !tbaa !16
  %251 = zext i8 %250 to i32
  %252 = and i32 %251, 15
  %253 = shl i32 %252, 12
  %254 = load ptr, ptr %5, align 8, !tbaa !7
  %255 = getelementptr i8, ptr %254, i64 1
  %256 = load i8, ptr %255, align 1, !tbaa !16
  %257 = zext i8 %256 to i32
  %258 = and i32 %257, 63
  %259 = shl i32 %258, 6
  %260 = or i32 %253, %259
  %261 = load ptr, ptr %5, align 8, !tbaa !7
  %262 = getelementptr i8, ptr %261, i64 2
  %263 = load i8, ptr %262, align 1, !tbaa !16
  %264 = zext i8 %263 to i32
  %265 = and i32 %264, 63
  %266 = or i32 %260, %265
  store i32 %266, ptr %4, align 4
  br label %269

267:                                              ; preds = %240, %234, %228, %222, %216, %210, %195
  %268 = load ptr, ptr %7, align 8, !tbaa !19
  store i64 0, ptr %268, align 8, !tbaa !12
  store i32 0, ptr %4, align 4
  br label %269

269:                                              ; preds = %267, %246, %173, %123, %46, %13
  %270 = load i32, ptr %4, align 4
  ret i32 %270
}