; Function Attrs: mustprogress nofree norecurse nosync nounwind sspstrong willreturn memory(argmem: readwrite) uwtable
define internal fastcc range(i32 0, 1114112) i32 @pm_cesu_8_codepoint(ptr noundef readonly captures(none) %0, i64 noundef %1, ptr noundef nonnull writeonly captures(none) initializes((0, 8)) %2) unnamed_addr #4 {
  %4 = load i8, ptr %0, align 1, !tbaa !7
  %5 = icmp sgt i8 %4, -1
  br i1 %5, label %6, label %9

6:                                                ; preds = %3
  store i64 1, ptr %2, align 8, !tbaa !16
  %7 = load i8, ptr %0, align 1, !tbaa !7
  %8 = zext i8 %7 to i32
  br label %116

9:                                                ; preds = %3
  %10 = icmp sgt i64 %1, 1
  %11 = add nsw i8 %4, 62
  %12 = icmp ult i8 %11, 30
  %or.cond58 = and i1 %10, %12
  br i1 %or.cond58, label %13, label %25

13:                                               ; preds = %9
  %14 = getelementptr i8, ptr %0, i64 1
  %15 = load i8, ptr %14, align 1, !tbaa !7
  %or.cond59 = icmp slt i8 %15, -64
  br i1 %or.cond59, label %16, label %25

16:                                               ; preds = %13
  store i64 2, ptr %2, align 8, !tbaa !16
  %17 = load i8, ptr %0, align 1, !tbaa !7
  %18 = and i8 %17, 31
  %19 = zext nneg i8 %18 to i32
  %20 = shl nuw nsw i32 %19, 6
  %21 = load i8, ptr %14, align 1, !tbaa !7
  %22 = and i8 %21, 63
  %23 = zext nneg i8 %22 to i32
  %24 = or disjoint i32 %20, %23
  br label %116

25:                                               ; preds = %13, %9
  %26 = icmp sgt i64 %1, 5
  br i1 %26, label %27, label %66

27:                                               ; preds = %25
  switch i8 %4, label %.thread67 [
    i8 -19, label %28
    i8 -32, label %87
  ]

28:                                               ; preds = %27
  %29 = getelementptr i8, ptr %0, i64 1
  %30 = load i8, ptr %29, align 1, !tbaa !7
  %31 = and i8 %30, -16
  %or.cond60 = icmp eq i8 %31, -96
  br i1 %or.cond60, label %32, label %.thread.thread

32:                                               ; preds = %28
  %33 = getelementptr i8, ptr %0, i64 2
  %34 = load i8, ptr %33, align 1, !tbaa !7
  %or.cond61 = icmp slt i8 %34, -64
  br i1 %or.cond61, label %35, label %.thread.thread

35:                                               ; preds = %32
  %36 = getelementptr i8, ptr %0, i64 3
  %37 = load i8, ptr %36, align 1, !tbaa !7
  %38 = icmp eq i8 %37, -19
  br i1 %38, label %39, label %.thread.thread

39:                                               ; preds = %35
  %40 = getelementptr i8, ptr %0, i64 4
  %41 = load i8, ptr %40, align 1, !tbaa !7
  %42 = and i8 %41, -16
  %or.cond62 = icmp eq i8 %42, -80
  br i1 %or.cond62, label %43, label %.thread.thread

43:                                               ; preds = %39
  %44 = getelementptr i8, ptr %0, i64 5
  %45 = load i8, ptr %44, align 1, !tbaa !7
  %or.cond63 = icmp slt i8 %45, -64
  br i1 %or.cond63, label %46, label %.thread.thread

46:                                               ; preds = %43
  store i64 6, ptr %2, align 8, !tbaa !16
  %47 = load i8, ptr %29, align 1, !tbaa !7
  %48 = and i8 %47, 15
  %49 = zext nneg i8 %48 to i32
  %50 = shl nuw nsw i32 %49, 16
  %51 = load i8, ptr %33, align 1, !tbaa !7
  %52 = and i8 %51, 63
  %53 = zext nneg i8 %52 to i32
  %54 = shl nuw nsw i32 %53, 10
  %55 = load i8, ptr %40, align 1, !tbaa !7
  %56 = and i8 %55, 15
  %57 = zext nneg i8 %56 to i32
  %58 = shl nuw nsw i32 %57, 6
  %59 = load i8, ptr %44, align 1, !tbaa !7
  %60 = and i8 %59, 63
  %61 = zext nneg i8 %60 to i32
  %62 = add nuw nsw i32 %50, 65536
  %63 = or disjoint i32 %62, %54
  %64 = or disjoint i32 %63, %61
  %65 = or disjoint i32 %64, %58
  br label %116

66:                                               ; preds = %25
  %67 = icmp sgt i64 %1, 2
  br i1 %67, label %.thread, label %.critedge

.thread:                                          ; preds = %66
  switch i8 %4, label %.thread67 [
    i8 -19, label %.thread..thread.thread_crit_edge
    i8 -32, label %87
  ]

.thread..thread.thread_crit_edge:                 ; preds = %.thread
  %.phi.trans.insert = getelementptr i8, ptr %0, i64 1
  %.pre = load i8, ptr %.phi.trans.insert, align 1, !tbaa !7
  br label %.thread.thread

.thread.thread:                                   ; preds = %.thread..thread.thread_crit_edge, %43, %39, %35, %32, %28
  %68 = phi i8 [ %.pre, %.thread..thread.thread_crit_edge ], [ %30, %43 ], [ %30, %39 ], [ %30, %35 ], [ %30, %32 ], [ %30, %28 ]
  %69 = and i8 %68, -32
  %or.cond64 = icmp eq i8 %69, -96
  br i1 %or.cond64, label %70, label %.thread67.thread

70:                                               ; preds = %.thread.thread
  %71 = getelementptr i8, ptr %0, i64 1
  store i64 3, ptr %2, align 8, !tbaa !16
  %72 = load i8, ptr %0, align 1, !tbaa !7
  %73 = and i8 %72, 3
  %74 = zext nneg i8 %73 to i32
  %75 = shl nuw nsw i32 %74, 16
  %76 = load i8, ptr %71, align 1, !tbaa !7
  %77 = and i8 %76, 63
  %78 = zext nneg i8 %77 to i32
  %79 = shl nuw nsw i32 %78, 10
  %80 = getelementptr i8, ptr %0, i64 2
  %81 = load i8, ptr %80, align 1, !tbaa !7
  %82 = and i8 %81, 63
  %83 = zext nneg i8 %82 to i32
  %84 = add nuw nsw i32 %75, 65536
  %85 = or disjoint i32 %84, %83
  %86 = or disjoint i32 %85, %79
  br label %116

87:                                               ; preds = %27, %.thread
  %88 = getelementptr i8, ptr %0, i64 1
  %89 = load i8, ptr %88, align 1, !tbaa !7
  %90 = icmp ugt i8 %89, -97
  br i1 %90, label %95, label %.critedge

.thread67:                                        ; preds = %27, %.thread
  %91 = add nsw i8 %4, 31
  %or.cond65 = icmp ult i8 %91, 15
  br i1 %or.cond65, label %.thread67.thread, label %.critedge

.thread67.thread:                                 ; preds = %.thread.thread, %.thread67
  %92 = getelementptr i8, ptr %0, i64 1
  %93 = load i8, ptr %92, align 1, !tbaa !7
  %94 = icmp slt i8 %93, 0
  br i1 %94, label %95, label %.critedge

95:                                               ; preds = %.thread67.thread, %87
  %96 = phi i8 [ %93, %.thread67.thread ], [ %89, %87 ]
  %97 = getelementptr i8, ptr %0, i64 1
  %98 = icmp samesign ult i8 %96, -64
  br i1 %98, label %99, label %.critedge

99:                                               ; preds = %95
  %100 = getelementptr i8, ptr %0, i64 2
  %101 = load i8, ptr %100, align 1, !tbaa !7
  %or.cond66 = icmp slt i8 %101, -64
  br i1 %or.cond66, label %102, label %.critedge

102:                                              ; preds = %99
  store i64 3, ptr %2, align 8, !tbaa !16
  %103 = load i8, ptr %0, align 1, !tbaa !7
  %104 = and i8 %103, 15
  %105 = zext nneg i8 %104 to i32
  %106 = shl nuw nsw i32 %105, 12
  %107 = load i8, ptr %97, align 1, !tbaa !7
  %108 = and i8 %107, 63
  %109 = zext nneg i8 %108 to i32
  %110 = shl nuw nsw i32 %109, 6
  %111 = or disjoint i32 %110, %106
  %112 = load i8, ptr %100, align 1, !tbaa !7
  %113 = and i8 %112, 63
  %114 = zext nneg i8 %113 to i32
  %115 = or disjoint i32 %111, %114
  br label %116

.critedge:                                        ; preds = %87, %66, %99, %95, %.thread67.thread, %.thread67
  store i64 0, ptr %2, align 8, !tbaa !16
  br label %116

116:                                              ; preds = %.critedge, %102, %70, %46, %16, %6
  %.0 = phi i32 [ %8, %6 ], [ %24, %16 ], [ %65, %46 ], [ %86, %70 ], [ %115, %102 ], [ 0, %.critedge ]
  ret i32 %.0
}